target datalayout = "e-m:e-p270:32:32-p271:32:32-p272:64:64-i64:64-i128:128-f80:128-n8:16:32:64-S128"
target triple = "x86_64-pc-linux-gnu"

%"class.Ipopt::TNLPReducer" = type { %"class.Ipopt::TNLP.base", %"class.Ipopt::SmartPtr", i32, i32, i32, ptr, i32, ptr, i32, i32, i32, ptr, i32, ptr, i32, ptr, i32, ptr }
%"class.Ipopt::TNLP.base" = type { %"class.Ipopt::ReferencedObject.base" }
%"class.Ipopt::ReferencedObject.base" = type <{ ptr, i32 }>
%"class.Ipopt::SmartPtr" = type { ptr }

; Function Attrs: mustprogress nounwind uwtable
define linkonce_odr noundef ptr @_ZNK5Ipopt8SmartPtrINS_4TNLPEEptEv(ptr noundef nonnull align 8 dereferenceable(8) %0) #3 comdat align 2 {
  %2 = alloca ptr, align 8
  store ptr %0, ptr %2, align 8
  %3 = load ptr, ptr %2, align 8
  %4 = getelementptr inbounds %"class.Ipopt::SmartPtr", ptr %3, i32 0, i32 0
  %5 = load ptr, ptr %4, align 8
  ret ptr %5
}

; Function Attrs: mustprogress uwtable
define noundef zeroext i1 @_ZN5Ipopt11TNLPReducer22get_scaling_parametersERdRbiPdS2_iS3_(ptr noundef nonnull align 8 dereferenceable(136) %0, ptr noundef nonnull align 8 dereferenceable(8) %1, ptr noundef nonnull align 1 dereferenceable(1) %2, i32 noundef %3, ptr noundef %4, ptr noundef nonnull align 1 dereferenceable(1) %5, i32 noundef %6, ptr noundef %7) unnamed_addr #0 align 2 {
  %9 = alloca ptr, align 8
  %10 = alloca ptr, align 8
  %11 = alloca ptr, align 8
  %12 = alloca i32, align 4
  %13 = alloca ptr, align 8
  %14 = alloca ptr, align 8
  %15 = alloca i32, align 4
  %16 = alloca ptr, align 8
  %17 = alloca ptr, align 8
  %18 = alloca i8, align 1
  %19 = alloca i32, align 4
  %20 = alloca ptr, align 8
  store ptr %0, ptr %9, align 8
  store ptr %1, ptr %10, align 8
  store ptr %2, ptr %11, align 8
  store i32 %3, ptr %12, align 4
  store ptr %4, ptr %13, align 8
  store ptr %5, ptr %14, align 8
  store i32 %6, ptr %15, align 4
  store ptr %7, ptr %16, align 8
  %21 = load ptr, ptr %9, align 8
  %22 = getelementptr inbounds %"class.Ipopt::TNLPReducer", ptr %21, i32 0, i32 2
  %23 = load i32, ptr %22, align 8
  %24 = sext i32 %23 to i64
  %25 = call { i64, i1 } @llvm.umul.with.overflow.i64(i64 %24, i64 8)
  %26 = extractvalue { i64, i1 } %25, 1
  %27 = extractvalue { i64, i1 } %25, 0
  %28 = select i1 %26, i64 -1, i64 %27
  %29 = call noalias noundef nonnull ptr @_Znam(i64 noundef %28) #8
  store ptr %29, ptr %17, align 8
  %30 = getelementptr inbounds %"class.Ipopt::TNLPReducer", ptr %21, i32 0, i32 1
  %31 = call noundef ptr @_ZNK5Ipopt8SmartPtrINS_4TNLPEEptEv(ptr noundef nonnull align 8 dereferenceable(8) %30)
  %32 = load ptr, ptr %10, align 8
  %33 = load ptr, ptr %11, align 8
  %34 = load i32, ptr %12, align 4
  %35 = load ptr, ptr %13, align 8
  %36 = load ptr, ptr %14, align 8
  %37 = getelementptr inbounds %"class.Ipopt::TNLPReducer", ptr %21, i32 0, i32 2
  %38 = load i32, ptr %37, align 8
  %39 = load ptr, ptr %17, align 8
  %40 = load ptr, ptr %31, align 8
  %41 = getelementptr inbounds ptr, ptr %40, i64 5
  %42 = load ptr, ptr %41, align 8
  %43 = call noundef zeroext i1 %42(ptr noundef nonnull align 8 dereferenceable(12) %31, ptr noundef nonnull align 8 dereferenceable(8) %32, ptr noundef nonnull align 1 dereferenceable(1) %33, i32 noundef %34, ptr noundef %35, ptr noundef nonnull align 1 dereferenceable(1) %36, i32 noundef %38, ptr noundef %39)
  %44 = zext i1 %43 to i8
  store i8 %44, ptr %18, align 1
  %45 = load i8, ptr %18, align 1
  %46 = trunc i8 %45 to i1
  br i1 %46, label %47, label %82

47:                                               ; preds = %8
  %48 = load ptr, ptr %14, align 8
  %49 = load i8, ptr %48, align 1
  %50 = trunc i8 %49 to i1
  br i1 %50, label %51, label %82

51:                                               ; preds = %47
  store i32 0, ptr %19, align 4
  br label %52

52:                                               ; preds = %78, %51
  %53 = load i32, ptr %19, align 4
  %54 = getelementptr inbounds %"class.Ipopt::TNLPReducer", ptr %21, i32 0, i32 2
  %55 = load i32, ptr %54, align 8
  %56 = icmp slt i32 %53, %55
  br i1 %56, label %57, label %81

57:                                               ; preds = %52
  %58 = getelementptr inbounds %"class.Ipopt::TNLPReducer", ptr %21, i32 0, i32 7
  %59 = load ptr, ptr %58, align 8
  %60 = load i32, ptr %19, align 4
  %61 = sext i32 %60 to i64
  %62 = getelementptr inbounds i32, ptr %59, i64 %61
  store ptr %62, ptr %20, align 8
  %63 = load ptr, ptr %20, align 8
  %64 = load i32, ptr %63, align 4
  %65 = icmp sge i32 %64, 0
  br i1 %65, label %66, label %77

66:                                               ; preds = %57
  %67 = load ptr, ptr %17, align 8
  %68 = load i32, ptr %19, align 4
  %69 = sext i32 %68 to i64
  %70 = getelementptr inbounds double, ptr %67, i64 %69
  %71 = load double, ptr %70, align 8
  %72 = load ptr, ptr %16, align 8
  %73 = load ptr, ptr %20, align 8
  %74 = load i32, ptr %73, align 4
  %75 = sext i32 %74 to i64
  %76 = getelementptr inbounds double, ptr %72, i64 %75
  store double %71, ptr %76, align 8
  br label %77

77:                                               ; preds = %66, %57
  br label %78

78:                                               ; preds = %77
  %79 = load i32, ptr %19, align 4
  %80 = add nsw i32 %79, 1
  store i32 %80, ptr %19, align 4
  br label %52, !llvm.loop !17

81:                                               ; preds = %52
  br label %82

82:                                               ; preds = %81, %47, %8
  %83 = load ptr, ptr %17, align 8
  %84 = icmp eq ptr %83, null
  br i1 %84, label %86, label %85

85:                                               ; preds = %82
  call void @_ZdaPv(ptr noundef %83) #11
  br label %86

86:                                               ; preds = %85, %82
  %87 = load i8, ptr %18, align 1
  %88 = trunc i8 %87 to i1
  ret i1 %88
}