; Function Attrs: mustprogress uwtable
define noundef zeroext i1 @_ZN5Ipopt11TNLPReducer22get_scaling_parametersERdRbiPdS2_iS3_(ptr nocapture noundef nonnull readonly align 8 dereferenceable(136) %0, ptr noundef nonnull align 8 dereferenceable(8) %1, ptr noundef nonnull align 1 dereferenceable(1) %2, i32 noundef %3, ptr noundef %4, ptr noundef nonnull align 1 dereferenceable(1) %5, i32 %6, ptr nocapture noundef writeonly %7) unnamed_addr #0 align 2 {
  %9 = getelementptr inbounds i8, ptr %0, i64 24
  %10 = load i32, ptr %9, align 8
  %11 = sext i32 %10 to i64
  %12 = icmp slt i32 %10, 0
  %13 = shl nsw i64 %11, 3
  %14 = select i1 %12, i64 -1, i64 %13
  %15 = tail call noalias noundef nonnull ptr @_Znam(i64 noundef %14) #8
  %16 = getelementptr inbounds i8, ptr %0, i64 16
  %17 = load ptr, ptr %16, align 8
  %18 = load ptr, ptr %17, align 8
  %19 = getelementptr inbounds i8, ptr %18, i64 40
  %20 = load ptr, ptr %19, align 8
  %21 = tail call noundef zeroext i1 %20(ptr noundef nonnull align 8 dereferenceable(12) %17, ptr noundef nonnull align 8 dereferenceable(8) %1, ptr noundef nonnull align 1 dereferenceable(1) %2, i32 noundef %3, ptr noundef %4, ptr noundef nonnull align 1 dereferenceable(1) %5, i32 noundef %10, ptr noundef nonnull %15)
  br i1 %21, label %22, label %.loopexit

22:                                               ; preds = %8
  %23 = load i8, ptr %5, align 1
  %24 = and i8 %23, 1
  %.not = icmp ne i8 %24, 0
  %25 = load i32, ptr %9, align 8
  %26 = icmp sgt i32 %25, 0
  %or.cond = select i1 %.not, i1 %26, i1 false
  br i1 %or.cond, label %.lr.ph, label %.loopexit

.lr.ph:                                           ; preds = %22
  %27 = getelementptr inbounds i8, ptr %0, i64 56
  br label %28

28:                                               ; preds = %.lr.ph, %39
  %29 = phi i32 [ %25, %.lr.ph ], [ %40, %39 ]
  %indvars.iv = phi i64 [ 0, %.lr.ph ], [ %indvars.iv.next, %39 ]
  %30 = load ptr, ptr %27, align 8
  %31 = getelementptr inbounds i32, ptr %30, i64 %indvars.iv
  %32 = load i32, ptr %31, align 4
  %33 = icmp sgt i32 %32, -1
  br i1 %33, label %34, label %39

34:                                               ; preds = %28
  %35 = getelementptr inbounds double, ptr %15, i64 %indvars.iv
  %36 = load double, ptr %35, align 8
  %37 = zext nneg i32 %32 to i64
  %38 = getelementptr inbounds double, ptr %7, i64 %37
  store double %36, ptr %38, align 8
  %.pre = load i32, ptr %9, align 8
  br label %39

39:                                               ; preds = %28, %34
  %40 = phi i32 [ %29, %28 ], [ %.pre, %34 ]
  %indvars.iv.next = add nuw nsw i64 %indvars.iv, 1
  %41 = sext i32 %40 to i64
  %42 = icmp slt i64 %indvars.iv.next, %41
  br i1 %42, label %28, label %.loopexit, !llvm.loop !17

.loopexit:                                        ; preds = %39, %8, %22
  tail call void @_ZdaPv(ptr noundef nonnull %15) #9
  ret i1 %21
}